target datalayout = "e-m:e-p270:32:32-p271:32:32-p272:64:64-i64:64-i128:128-f80:128-n8:16:32:64-S128"
target triple = "x86_64-pc-linux-gnu"

%"class.icu_77::UObject" = type { ptr }
%"class.icu_77::UnicodeString" = type { %"class.icu_77::Replaceable", %"union.icu_77::UnicodeString::StackBufferOrFields" }
%"class.icu_77::Replaceable" = type { %"class.icu_77::UObject" }
%"union.icu_77::UnicodeString::StackBufferOrFields" = type { %struct.anon.0, [32 x i8] }
%struct.anon.0 = type { i16, i32, i32, ptr }

; Function Attrs: mustprogress nounwind uwtable
define internal void @_ZN6icu_7712_GLOBAL__N_116CalendarDataSink24deleteUnicodeStringArrayEPv(ptr noundef %0) #0 align 2 {
  %2 = alloca ptr, align 8
  store ptr %0, ptr %2, align 8, !tbaa !22
  %3 = load ptr, ptr %2, align 8, !tbaa !22
  %4 = icmp eq ptr %3, null
  br i1 %4, label %15, label %5

5:                                                ; preds = %1
  %6 = getelementptr inbounds i8, ptr %3, i64 -8
  %7 = load i64, ptr %6, align 8
  %8 = getelementptr inbounds %"class.icu_77::UnicodeString", ptr %3, i64 %7
  %9 = icmp eq ptr %3, %8
  br i1 %9, label %14, label %10

10:                                               ; preds = %10, %5
  %11 = phi ptr [ %8, %5 ], [ %12, %10 ]
  %12 = getelementptr inbounds %"class.icu_77::UnicodeString", ptr %11, i64 -1
  call void @_ZN6icu_7713UnicodeStringD1Ev(ptr noundef nonnull align 8 dereferenceable(64) %12) #14
  %13 = icmp eq ptr %12, %3
  br i1 %13, label %14, label %10

14:                                               ; preds = %10, %5
  call void @_ZN6icu_777UMemorydaEPv(ptr noundef %6) #14
  br label %15

15:                                               ; preds = %14, %1
  ret void
}