; Function Attrs: mustprogress nounwind uwtable
define internal void @_ZN6icu_7712_GLOBAL__N_116CalendarDataSink24deleteUnicodeStringArrayEPv(ptr noundef %0) #0 align 2 {
  %2 = icmp eq ptr %0, null
  br i1 %2, label %11, label %3

3:                                                ; preds = %1
  %4 = getelementptr inbounds i8, ptr %0, i64 -8
  %5 = load i64, ptr %4, align 8
  %6 = icmp eq i64 %5, 0
  br i1 %6, label %.loopexit, label %.preheader.preheader

.preheader.preheader:                             ; preds = %3
  %7 = getelementptr inbounds %"class.icu_77::UnicodeString", ptr %0, i64 %5
  br label %.preheader

.preheader:                                       ; preds = %.preheader.preheader, %.preheader
  %8 = phi ptr [ %9, %.preheader ], [ %7, %.preheader.preheader ]
  %9 = getelementptr inbounds i8, ptr %8, i64 -64
  tail call void @_ZN6icu_7713UnicodeStringD1Ev(ptr noundef nonnull align 8 dereferenceable(64) %9) #19
  %10 = icmp eq ptr %9, %0
  br i1 %10, label %.loopexit, label %.preheader

.loopexit:                                        ; preds = %.preheader, %3
  tail call void @_ZN6icu_777UMemorydaEPv(ptr noundef nonnull %4) #19
  br label %11

11:                                               ; preds = %.loopexit, %1
  ret void
}